target datalayout = "e-m:e-p270:32:32-p271:32:32-p272:64:64-i64:64-i128:128-f80:128-n8:16:32:64-S128"
target triple = "x86_64-pc-linux-gnu"

%struct.expert_field = type { i32, i32 }
%struct._proto_node = type { ptr, ptr, ptr, ptr, ptr, ptr, ptr }
%struct.field_info = type { ptr, i32, i32, i32, i32, i32, i32, ptr, ptr, ptr, i32, i32 }

@hf_oss_msg_node = internal global i32 0, align 4
@hf_oss_msg_network = internal global i32 0, align 4
@ett_opensafety_node = internal global i32 0, align 4
@ei_scmudid_unknown = internal global %struct.expert_field zeroinitializer, align 4

; Function Attrs: inlinehint nounwind null_pointer_is_valid sspstrong uwtable
define internal void @proto_item_set_generated(ptr noundef %0) #6 {
  %2 = alloca ptr, align 8
  store ptr %0, ptr %2, align 8
  %3 = load ptr, ptr %2, align 8
  %4 = icmp ne ptr %3, null
  br i1 %4, label %5, label %24

5:                                                ; preds = %1
  br label %6

6:                                                ; preds = %5
  %7 = load ptr, ptr %2, align 8
  %8 = getelementptr inbounds nuw %struct._proto_node, ptr %7, i32 0, i32 5
  %9 = load ptr, ptr %8, align 8
  %10 = icmp ne ptr %9, null
  br i1 %10, label %11, label %22

11:                                               ; preds = %6
  %12 = load ptr, ptr %2, align 8
  %13 = getelementptr inbounds nuw %struct._proto_node, ptr %12, i32 0, i32 5
  %14 = load ptr, ptr %13, align 8
  %15 = getelementptr inbounds nuw %struct.field_info, ptr %14, i32 0, i32 6
  %16 = load i32, ptr %15, align 4
  %17 = or i32 %16, 2
  %18 = load ptr, ptr %2, align 8
  %19 = getelementptr inbounds nuw %struct._proto_node, ptr %18, i32 0, i32 5
  %20 = load ptr, ptr %19, align 8
  %21 = getelementptr inbounds nuw %struct.field_info, ptr %20, i32 0, i32 6
  store i32 %17, ptr %21, align 4
  br label %22

22:                                               ; preds = %11, %6
  br label %23

23:                                               ; preds = %22
  br label %24

24:                                               ; preds = %23, %1
  ret void
}

; Function Attrs: null_pointer_is_valid sspstrong uwtable
define internal void @opensafety_packet_node(ptr noundef %0, ptr noundef %1, ptr noundef %2, i32 noundef %3, i16 noundef zeroext %4, i16 noundef zeroext %5, i16 noundef zeroext %6, i16 noundef zeroext %7) #0 {
  %9 = alloca ptr, align 8
  %10 = alloca ptr, align 8
  %11 = alloca ptr, align 8
  %12 = alloca i32, align 4
  %13 = alloca i16, align 2
  %14 = alloca i16, align 2
  %15 = alloca i16, align 2
  %16 = alloca i16, align 2
  %17 = alloca ptr, align 8
  %18 = alloca ptr, align 8
  store ptr %0, ptr %9, align 8
  store ptr %1, ptr %10, align 8
  store ptr %2, ptr %11, align 8
  store i32 %3, ptr %12, align 4
  store i16 %4, ptr %13, align 2
  store i16 %5, ptr %14, align 2
  store i16 %6, ptr %15, align 2
  store i16 %7, ptr %16, align 2
  call void @llvm.lifetime.start.p0(i64 8, ptr %17) #12
  store ptr null, ptr %17, align 8
  call void @llvm.lifetime.start.p0(i64 8, ptr %18) #12
  store ptr null, ptr %18, align 8
  %19 = load ptr, ptr %11, align 8
  %20 = load i32, ptr %12, align 4
  %21 = load ptr, ptr %9, align 8
  %22 = load i16, ptr %14, align 2
  %23 = zext i16 %22 to i32
  %24 = load i16, ptr %13, align 2
  %25 = zext i16 %24 to i32
  %26 = call ptr @proto_tree_add_uint(ptr noundef %19, i32 noundef %20, ptr noundef %21, i32 noundef %23, i32 noundef 2, i32 noundef %25)
  store ptr %26, ptr %17, align 8
  %27 = load ptr, ptr %17, align 8
  %28 = load i32, ptr @ett_opensafety_node, align 4
  %29 = call ptr @proto_item_add_subtree(ptr noundef %27, i32 noundef %28)
  store ptr %29, ptr %18, align 8
  %30 = load ptr, ptr %18, align 8
  %31 = load i32, ptr @hf_oss_msg_node, align 4
  %32 = load ptr, ptr %9, align 8
  %33 = load i16, ptr %14, align 2
  %34 = zext i16 %33 to i32
  %35 = load i16, ptr %13, align 2
  %36 = zext i16 %35 to i32
  %37 = call ptr @proto_tree_add_uint(ptr noundef %30, i32 noundef %31, ptr noundef %32, i32 noundef %34, i32 noundef 2, i32 noundef %36)
  store ptr %37, ptr %17, align 8
  %38 = load ptr, ptr %17, align 8
  call void @proto_item_set_generated(ptr noundef %38)
  %39 = load i16, ptr %16, align 2
  %40 = zext i16 %39 to i32
  %41 = icmp sgt i32 %40, 0
  br i1 %41, label %42, label %51

42:                                               ; preds = %8
  %43 = load ptr, ptr %18, align 8
  %44 = load i32, ptr @hf_oss_msg_network, align 4
  %45 = load ptr, ptr %9, align 8
  %46 = load i16, ptr %15, align 2
  %47 = zext i16 %46 to i32
  %48 = load i16, ptr %16, align 2
  %49 = zext i16 %48 to i32
  %50 = call ptr @proto_tree_add_uint(ptr noundef %43, i32 noundef %44, ptr noundef %45, i32 noundef %47, i32 noundef 2, i32 noundef %49)
  store ptr %50, ptr %17, align 8
  br label %69

51:                                               ; preds = %8
  %52 = load i16, ptr %16, align 2
  %53 = zext i16 %52 to i32
  %54 = icmp sle i32 %53, 0
  br i1 %54, label %55, label %68

55:                                               ; preds = %51
  %56 = load ptr, ptr %18, align 8
  %57 = load i32, ptr @hf_oss_msg_network, align 4
  %58 = load ptr, ptr %9, align 8
  %59 = load i16, ptr %15, align 2
  %60 = zext i16 %59 to i32
  %61 = load i16, ptr %16, align 2
  %62 = zext i16 %61 to i32
  %63 = mul i32 %62, -1
  %64 = call ptr @proto_tree_add_uint(ptr noundef %56, i32 noundef %57, ptr noundef %58, i32 noundef %60, i32 noundef 2, i32 noundef %63)
  store ptr %64, ptr %17, align 8
  %65 = load ptr, ptr %10, align 8
  %66 = load ptr, ptr %17, align 8
  %67 = call ptr @expert_add_info(ptr noundef %65, ptr noundef %66, ptr noundef @ei_scmudid_unknown)
  br label %68

68:                                               ; preds = %55, %51
  br label %69

69:                                               ; preds = %68, %42
  %70 = load ptr, ptr %17, align 8
  call void @proto_item_set_generated(ptr noundef %70)
  call void @llvm.lifetime.end.p0(i64 8, ptr %18) #12
  call void @llvm.lifetime.end.p0(i64 8, ptr %17) #12
  ret void
}