; Function Attrs: null_pointer_is_valid sspstrong uwtable
define internal fastcc void @opensafety_packet_node(ptr noundef %0, ptr noundef %1, ptr noundef %2, i32 noundef %3, i16 noundef zeroext %4, i16 noundef zeroext %5, i16 noundef zeroext %6, i16 noundef zeroext %7) unnamed_addr #0 {
  %9 = zext i16 %5 to i32
  %10 = zext i16 %4 to i32
  %11 = tail call ptr @proto_tree_add_uint(ptr noundef %2, i32 noundef %3, ptr noundef %0, i32 noundef %9, i32 noundef 2, i32 noundef %10)
  %12 = load i32, ptr @ett_opensafety_node, align 4
  %13 = tail call ptr @proto_item_add_subtree(ptr noundef %11, i32 noundef %12)
  %14 = load i32, ptr @hf_oss_msg_node, align 4
  %15 = tail call ptr @proto_tree_add_uint(ptr noundef %13, i32 noundef %14, ptr noundef %0, i32 noundef %9, i32 noundef 2, i32 noundef %10)
  %.not.i = icmp eq ptr %15, null
  br i1 %.not.i, label %proto_item_set_generated.exit, label %16

16:                                               ; preds = %8
  %17 = getelementptr inbounds nuw i8, ptr %15, i64 40
  %18 = load ptr, ptr %17, align 8
  %.not5.i = icmp eq ptr %18, null
  br i1 %.not5.i, label %proto_item_set_generated.exit, label %19

19:                                               ; preds = %16
  %20 = getelementptr inbounds nuw i8, ptr %18, i64 28
  %21 = load i32, ptr %20, align 4
  %22 = or i32 %21, 2
  store i32 %22, ptr %20, align 4
  br label %proto_item_set_generated.exit

proto_item_set_generated.exit:                    ; preds = %8, %16, %19
  %.not = icmp eq i16 %7, 0
  br i1 %.not, label %28, label %23

23:                                               ; preds = %proto_item_set_generated.exit
  %24 = zext i16 %7 to i32
  %25 = load i32, ptr @hf_oss_msg_network, align 4
  %26 = zext i16 %6 to i32
  %27 = tail call ptr @proto_tree_add_uint(ptr noundef %13, i32 noundef %25, ptr noundef %0, i32 noundef %26, i32 noundef 2, i32 noundef %24)
  br label %33

28:                                               ; preds = %proto_item_set_generated.exit
  %29 = load i32, ptr @hf_oss_msg_network, align 4
  %30 = zext i16 %6 to i32
  %31 = tail call ptr @proto_tree_add_uint(ptr noundef %13, i32 noundef %29, ptr noundef %0, i32 noundef %30, i32 noundef 2, i32 noundef 0)
  %32 = tail call ptr @expert_add_info(ptr noundef %1, ptr noundef %31, ptr noundef nonnull @ei_scmudid_unknown)
  br label %33

33:                                               ; preds = %28, %23
  %.0 = phi ptr [ %27, %23 ], [ %31, %28 ]
  %.not.i24 = icmp eq ptr %.0, null
  br i1 %.not.i24, label %proto_item_set_generated.exit26, label %34

34:                                               ; preds = %33
  %35 = getelementptr inbounds nuw i8, ptr %.0, i64 40
  %36 = load ptr, ptr %35, align 8
  %.not5.i25 = icmp eq ptr %36, null
  br i1 %.not5.i25, label %proto_item_set_generated.exit26, label %37

37:                                               ; preds = %34
  %38 = getelementptr inbounds nuw i8, ptr %36, i64 28
  %39 = load i32, ptr %38, align 4
  %40 = or i32 %39, 2
  store i32 %40, ptr %38, align 4
  br label %proto_item_set_generated.exit26

proto_item_set_generated.exit26:                  ; preds = %33, %34, %37
  ret void
}